; Function Attrs: nounwind uwtable
define internal zeroext i1 @finalize_agg_primnode(ptr noundef %0, ptr noundef %1) #0 {
  %3 = icmp eq ptr %0, null
  br i1 %3, label %16, label %4

4:                                                ; preds = %2
  %5 = load i32, ptr %0, align 4
  %6 = icmp eq i32 %5, 9
  br i1 %6, label %7, label %14

7:                                                ; preds = %4
  %8 = getelementptr inbounds nuw i8, ptr %0, i64 40
  %9 = load ptr, ptr %8, align 8
  %10 = tail call zeroext i1 @finalize_primnode(ptr noundef %9, ptr noundef %1)
  %11 = getelementptr inbounds nuw i8, ptr %0, i64 64
  %12 = load ptr, ptr %11, align 8
  %13 = tail call zeroext i1 @finalize_primnode(ptr noundef %12, ptr noundef %1)
  br label %16

14:                                               ; preds = %4
  %15 = tail call zeroext i1 @expression_tree_walker_impl(ptr noundef nonnull %0, ptr noundef nonnull @finalize_agg_primnode, ptr noundef %1) #10
  br label %16

16:                                               ; preds = %2, %14, %7
  %.0 = phi i1 [ false, %7 ], [ %15, %14 ], [ false, %2 ]
  ret i1 %.0
}